; ModuleID = 'source-C-CXX/48/562.cpp'
source_filename = "source-C-CXX/48/562.cpp"
target datalayout = "e-m:e-p270:32:32-p271:32:32-p272:64:64-i64:64-f80:128-n8:16:32:64-S128"
target triple = "x86_64-pc-linux-gnu"

%"class.std::ios_base::Init" = type { i8 }
%"class.std::basic_istream" = type { i32 (...)**, i64, %"class.std::basic_ios" }
%"class.std::basic_ios" = type { %"class.std::ios_base", %"class.std::basic_ostream"*, i8, i8, %"class.std::basic_streambuf"*, %"class.std::ctype"*, %"class.std::num_put"*, %"class.std::num_get"* }
%"class.std::ios_base" = type { i32 (...)**, i64, i64, i32, i32, i32, %"struct.std::ios_base::_Callback_list"*, %"struct.std::ios_base::_Words", [8 x %"struct.std::ios_base::_Words"], i32, %"struct.std::ios_base::_Words"*, %"class.std::locale" }
%"struct.std::ios_base::_Callback_list" = type { %"struct.std::ios_base::_Callback_list"*, void (i32, %"class.std::ios_base"*, i32)*, i32, i32 }
%"struct.std::ios_base::_Words" = type { i8*, i64 }
%"class.std::locale" = type { %"class.std::locale::_Impl"* }
%"class.std::locale::_Impl" = type { i32, %"class.std::locale::facet"**, i64, %"class.std::locale::facet"**, i8** }
%"class.std::locale::facet" = type <{ i32 (...)**, i32, [4 x i8] }>
%"class.std::basic_ostream" = type { i32 (...)**, %"class.std::basic_ios" }
%"class.std::basic_streambuf" = type { i32 (...)**, i8*, i8*, i8*, i8*, i8*, i8*, %"class.std::locale" }
%"class.std::ctype" = type <{ %"class.std::locale::facet.base", [4 x i8], %struct.__locale_struct*, i8, [7 x i8], i32*, i32*, i16*, i8, [256 x i8], [256 x i8], i8, [6 x i8] }>
%"class.std::locale::facet.base" = type <{ i32 (...)**, i32 }>
%struct.__locale_struct = type { [13 x %struct.__locale_data*], i16*, i32*, i32*, [13 x i8*] }
%struct.__locale_data = type opaque
%"class.std::num_put" = type { %"class.std::locale::facet.base", [4 x i8] }
%"class.std::num_get" = type { %"class.std::locale::facet.base", [4 x i8] }

@_ZStL8__ioinit = internal global %"class.std::ios_base::Init" zeroinitializer, align 1
@__dso_handle = external hidden global i8
@_ZSt3cin = external global %"class.std::basic_istream", align 8
@_ZSt4cout = external global %"class.std::basic_ostream", align 8
@llvm.global_ctors = appending global [1 x { i32, void ()*, i8* }] [{ i32, void ()*, i8* } { i32 65535, void ()* @_GLOBAL__sub_I_562.cpp, i8* null }]

declare void @_ZNSt8ios_base4InitC1Ev(%"class.std::ios_base::Init"* nonnull align 1 dereferenceable(1)) unnamed_addr #0

; Function Attrs: nounwind
declare void @_ZNSt8ios_base4InitD1Ev(%"class.std::ios_base::Init"* nonnull align 1 dereferenceable(1)) unnamed_addr #1

; Function Attrs: nofree nounwind
declare i32 @__cxa_atexit(void (i8*)*, i8*, i8*) local_unnamed_addr #2

; Function Attrs: mustprogress norecurse sspstrong uwtable
define dso_local i32 @main() local_unnamed_addr #3 {
  %1 = alloca i8, align 1
  %2 = alloca [500 x i8], align 16
  %3 = getelementptr inbounds [500 x i8], [500 x i8]* %2, i64 0, i64 0
  call void @llvm.lifetime.start.p0i8(i64 500, i8* nonnull %3) #8
  call void @_ZSt17__istream_extractRSiPcl(%"class.std::basic_istream"* nonnull align 8 dereferenceable(16) @_ZSt3cin, i8* nonnull %3, i64 500)
  %4 = call i64 @strlen(i8* noundef nonnull %3) #9
  %5 = trunc i64 %4 to i32
  %6 = icmp slt i32 %5, 2
  br i1 %6, label %83, label %7

7:                                                ; preds = %0
  %8 = add i64 %4, 1
  %9 = and i64 %8, 4294967295
  br label %10

10:                                               ; preds = %7, %80
  %11 = phi i32 [ %5, %7 ], [ %13, %80 ]
  %12 = phi i64 [ 2, %7 ], [ %81, %80 ]
  %13 = add i32 %11, -1
  %14 = trunc i64 %12 to i32
  %15 = icmp slt i32 %5, %14
  br i1 %15, label %80, label %16

16:                                               ; preds = %10
  %17 = lshr i64 %12, 1
  %18 = zext i32 %13 to i64
  %19 = and i64 %17, 2147483647
  br label %20

20:                                               ; preds = %16, %75
  %21 = phi i64 [ %12, %16 ], [ %77, %75 ]
  %22 = phi i64 [ 0, %16 ], [ %76, %75 ]
  %23 = add nuw nsw i64 %22, %12
  %24 = trunc i64 %23 to i32
  br label %62

25:                                               ; preds = %62
  %26 = add nuw nsw i32 %64, 1
  %27 = icmp eq i64 %74, %19
  br i1 %27, label %55, label %62, !llvm.loop !5

28:                                               ; preds = %55
  %29 = load i8*, i8** bitcast (%"class.std::basic_ostream"* @_ZSt4cout to i8**), align 8, !tbaa !7
  %30 = getelementptr i8, i8* %29, i64 -24
  %31 = bitcast i8* %30 to i64*
  %32 = load i64, i64* %31, align 8
  %33 = add nsw i64 %32, 240
  %34 = getelementptr inbounds i8, i8* bitcast (%"class.std::basic_ostream"* @_ZSt4cout to i8*), i64 %33
  %35 = bitcast i8* %34 to %"class.std::ctype"**
  %36 = load %"class.std::ctype"*, %"class.std::ctype"** %35, align 8, !tbaa !10
  %37 = icmp eq %"class.std::ctype"* %36, null
  br i1 %37, label %79, label %38

38:                                               ; preds = %28
  %39 = getelementptr inbounds %"class.std::ctype", %"class.std::ctype"* %36, i64 0, i32 8
  %40 = load i8, i8* %39, align 8, !tbaa !15
  %41 = icmp eq i8 %40, 0
  br i1 %41, label %45, label %42

42:                                               ; preds = %38
  %43 = getelementptr inbounds %"class.std::ctype", %"class.std::ctype"* %36, i64 0, i32 9, i64 10
  %44 = load i8, i8* %43, align 1, !tbaa !17
  br label %51

45:                                               ; preds = %38
  call void @_ZNKSt5ctypeIcE13_M_widen_initEv(%"class.std::ctype"* nonnull align 8 dereferenceable(570) %36)
  %46 = bitcast %"class.std::ctype"* %36 to i8 (%"class.std::ctype"*, i8)***
  %47 = load i8 (%"class.std::ctype"*, i8)**, i8 (%"class.std::ctype"*, i8)*** %46, align 8, !tbaa !7
  %48 = getelementptr inbounds i8 (%"class.std::ctype"*, i8)*, i8 (%"class.std::ctype"*, i8)** %47, i64 6
  %49 = load i8 (%"class.std::ctype"*, i8)*, i8 (%"class.std::ctype"*, i8)** %48, align 8
  %50 = call signext i8 %49(%"class.std::ctype"* nonnull align 8 dereferenceable(570) %36, i8 signext 10)
  br label %51

51:                                               ; preds = %45, %42
  %52 = phi i8 [ %44, %42 ], [ %50, %45 ]
  %53 = call nonnull align 8 dereferenceable(8) %"class.std::basic_ostream"* @_ZNSo3putEc(%"class.std::basic_ostream"* nonnull align 8 dereferenceable(8) @_ZSt4cout, i8 signext %52)
  %54 = call nonnull align 8 dereferenceable(8) %"class.std::basic_ostream"* @_ZNSo5flushEv(%"class.std::basic_ostream"* nonnull align 8 dereferenceable(8) %53)
  br label %75

55:                                               ; preds = %25, %55
  %56 = phi i64 [ %60, %55 ], [ %22, %25 ]
  %57 = getelementptr inbounds [500 x i8], [500 x i8]* %2, i64 0, i64 %56
  %58 = load i8, i8* %57, align 1, !tbaa !17
  call void @llvm.lifetime.start.p0i8(i64 1, i8* nonnull %1)
  store i8 %58, i8* %1, align 1, !tbaa !17
  %59 = call nonnull align 8 dereferenceable(8) %"class.std::basic_ostream"* @_ZSt16__ostream_insertIcSt11char_traitsIcEERSt13basic_ostreamIT_T0_ES6_PKS3_l(%"class.std::basic_ostream"* nonnull align 8 dereferenceable(8) @_ZSt4cout, i8* nonnull %1, i64 1)
  call void @llvm.lifetime.end.p0i8(i64 1, i8* nonnull %1)
  %60 = add nuw nsw i64 %56, 1
  %61 = icmp eq i64 %60, %21
  br i1 %61, label %28, label %55, !llvm.loop !18

62:                                               ; preds = %20, %25
  %63 = phi i64 [ 0, %20 ], [ %74, %25 ]
  %64 = phi i32 [ 0, %20 ], [ %26, %25 ]
  %65 = add nuw nsw i64 %63, %22
  %66 = getelementptr inbounds [500 x i8], [500 x i8]* %2, i64 0, i64 %65
  %67 = load i8, i8* %66, align 1, !tbaa !17
  %68 = xor i32 %64, -1
  %69 = add nsw i32 %24, %68
  %70 = sext i32 %69 to i64
  %71 = getelementptr inbounds [500 x i8], [500 x i8]* %2, i64 0, i64 %70
  %72 = load i8, i8* %71, align 1, !tbaa !17
  %73 = icmp eq i8 %67, %72
  %74 = add nuw nsw i64 %63, 1
  br i1 %73, label %25, label %75

75:                                               ; preds = %62, %51
  %76 = add nuw nsw i64 %22, 1
  %77 = add nuw nsw i64 %21, 1
  %78 = icmp eq i64 %76, %18
  br i1 %78, label %80, label %20, !llvm.loop !19

79:                                               ; preds = %28
  call void @_ZSt16__throw_bad_castv() #10
  unreachable

80:                                               ; preds = %75, %10
  %81 = add nuw nsw i64 %12, 1
  %82 = icmp eq i64 %81, %9
  br i1 %82, label %83, label %10, !llvm.loop !20

83:                                               ; preds = %80, %0
  call void @llvm.lifetime.end.p0i8(i64 500, i8* nonnull %3) #8
  ret i32 0
}

; Function Attrs: argmemonly mustprogress nofree nosync nounwind willreturn
declare void @llvm.lifetime.start.p0i8(i64 immarg, i8* nocapture) #4

; Function Attrs: argmemonly mustprogress nofree nounwind readonly willreturn
declare i64 @strlen(i8* nocapture) local_unnamed_addr #5

; Function Attrs: argmemonly mustprogress nofree nosync nounwind willreturn
declare void @llvm.lifetime.end.p0i8(i64 immarg, i8* nocapture) #4

declare void @_ZSt17__istream_extractRSiPcl(%"class.std::basic_istream"* nonnull align 8 dereferenceable(16), i8*, i64) local_unnamed_addr #0

declare nonnull align 8 dereferenceable(8) %"class.std::basic_ostream"* @_ZSt16__ostream_insertIcSt11char_traitsIcEERSt13basic_ostreamIT_T0_ES6_PKS3_l(%"class.std::basic_ostream"* nonnull align 8 dereferenceable(8), i8*, i64) local_unnamed_addr #0

declare nonnull align 8 dereferenceable(8) %"class.std::basic_ostream"* @_ZNSo3putEc(%"class.std::basic_ostream"* nonnull align 8 dereferenceable(8), i8 signext) local_unnamed_addr #0

declare nonnull align 8 dereferenceable(8) %"class.std::basic_ostream"* @_ZNSo5flushEv(%"class.std::basic_ostream"* nonnull align 8 dereferenceable(8)) local_unnamed_addr #0

; Function Attrs: noreturn
declare void @_ZSt16__throw_bad_castv() local_unnamed_addr #6

declare void @_ZNKSt5ctypeIcE13_M_widen_initEv(%"class.std::ctype"* nonnull align 8 dereferenceable(570)) local_unnamed_addr #0

; Function Attrs: sspstrong uwtable
define internal void @_GLOBAL__sub_I_562.cpp() #7 section ".text.startup" {
  tail call void @_ZNSt8ios_base4InitC1Ev(%"class.std::ios_base::Init"* nonnull align 1 dereferenceable(1) @_ZStL8__ioinit)
  %1 = tail call i32 @__cxa_atexit(void (i8*)* bitcast (void (%"class.std::ios_base::Init"*)* @_ZNSt8ios_base4InitD1Ev to void (i8*)*), i8* getelementptr inbounds (%"class.std::ios_base::Init", %"class.std::ios_base::Init"* @_ZStL8__ioinit, i64 0, i32 0), i8* nonnull @__dso_handle) #8
  ret void
}


!llvm.module.flags = !{!0, !1, !2, !3}
!llvm.ident = !{!4}

!0 = !{i32 1, !"wchar_size", i32 4}
!1 = !{i32 7, !"PIC Level", i32 2}
!2 = !{i32 7, !"PIE Level", i32 2}
!3 = !{i32 7, !"uwtable", i32 1}
!4 = !{!"clang version 13.0.0"}
!5 = distinct !{!5, !6}
!6 = !{!"llvm.loop.mustprogress"}
!7 = !{!8, !8, i64 0}
!8 = !{!"vtable pointer", !9, i64 0}
!9 = !{!"Simple C++ TBAA"}
!10 = !{!11, !12, i64 240}
!11 = !{!"_ZTSSt9basic_iosIcSt11char_traitsIcEE", !12, i64 216, !13, i64 224, !14, i64 225, !12, i64 232, !12, i64 240, !12, i64 248, !12, i64 256}
!12 = !{!"any pointer", !13, i64 0}
!13 = !{!"omnipotent char", !9, i64 0}
!14 = !{!"bool", !13, i64 0}
!15 = !{!16, !13, i64 56}
!16 = !{!"_ZTSSt5ctypeIcE", !12, i64 16, !14, i64 24, !12, i64 32, !12, i64 40, !12, i64 48, !13, i64 56, !13, i64 57, !13, i64 313, !13, i64 569}
!17 = !{!13, !13, i64 0}
!18 = distinct !{!18, !6}
!19 = distinct !{!19, !6}
!20 = distinct !{!20, !6}
